
build/output.elf:     file format elf32-littlearm


Disassembly of section .init:

00008000 <_start>:
    8000:	eb000042 	bl	8110 <stack_Init>
    8004:	e59f00b8 	ldr	r0, [pc, #184]	@ 80c4 <baudrate_speed>
    8008:	e3a01003 	mov	r1, #3
    800c:	e3a02000 	mov	r2, #0
    8010:	eb00005f 	bl	8194 <uart0_Init>
    8014:	e3a00903 	mov	r0, #49152	@ 0xc000
    8018:	e59f10b8 	ldr	r1, [pc, #184]	@ 80d8 <main_table>
    801c:	e5801000 	str	r1, [r0]
    8020:	e3a01801 	mov	r1, #65536	@ 0x10000
    8024:	e59f20a8 	ldr	r2, [pc, #168]	@ 80d4 <secondary_table_addr>
    8028:	e3a04000 	mov	r4, #0
    802c:	e7923104 	ldr	r3, [r2, r4, lsl #2]
    8030:	e7813104 	str	r3, [r1, r4, lsl #2]
    8034:	e2844001 	add	r4, r4, #1
    8038:	e354000b 	cmp	r4, #11
    803c:	9afffffa 	bls	802c <TAG_SET_CURSOR_INFO+0x1b>
    8040:	e3a00801 	mov	r0, #65536	@ 0x10000
    8044:	e2800014 	add	r0, r0, #20
    8048:	e5900000 	ldr	r0, [r0]
    804c:	e3a01010 	mov	r1, #16
    8050:	eb00008e 	bl	8290 <uart0_u32_write>
    8054:	e3a0000a 	mov	r0, #10
    8058:	eb000075 	bl	8234 <uart0_write>
    805c:	e3a0000d 	mov	r0, #13
    8060:	eb000073 	bl	8234 <uart0_write>
    8064:	e3a04000 	mov	r4, #0
    8068:	e3a00000 	mov	r0, #0
    806c:	ee020f50 	mcr	15, 0, r0, cr2, cr0, {2}
    8070:	e3a00903 	mov	r0, #49152	@ 0xc000
    8074:	ee020f10 	mcr	15, 0, r0, cr2, cr0, {0}
    8078:	e3a00000 	mov	r0, #0
    807c:	ee080f17 	mcr	15, 0, r0, cr8, cr7, {0}
    8080:	e3e00000 	mvn	r0, #0
    8084:	ee030f10 	mcr	15, 0, r0, cr3, cr0, {0}
    8088:	ee110f10 	mrc	15, 0, r0, cr1, cr0, {0}
    808c:	e3a00000 	mov	r0, #0
    8090:	ee070f15 	mcr	15, 0, r0, cr7, cr5, {0}
    8094:	e3c00a01 	bic	r0, r0, #4096	@ 0x1000
    8098:	e3c00004 	bic	r0, r0, #4
    809c:	e3c00201 	bic	r0, r0, #268435456	@ 0x10000000
    80a0:	e3800001 	orr	r0, r0, #1
    80a4:	ee010f10 	mcr	15, 0, r0, cr1, cr0, {0}
    80a8:	e3a00a0b 	mov	r0, #45056	@ 0xb000
    80ac:	e3a02042 	mov	r2, #66	@ 0x42
    80b0:	e5901054 	ldr	r1, [r0, #84]	@ 0x54
    80b4:	e3110020 	tst	r1, #32
    80b8:	0afffffc 	beq	80b0 <TAG_SET_CURSOR_INFO+0x9f>
    80bc:	e5802040 	str	r2, [r0, #64]	@ 0x40
    80c0:	ebfff3ce 	bl	5000 <_sys_stack_end>

000080c4 <baudrate_speed>:
    80c4:	00002580 	.word	0x00002580

000080c8 <palabra_addr>:
    80c8:	00017000 	.word	0x00017000

000080cc <start_main_addr>:
    80cc:	0000c000 	.word	0x0000c000

000080d0 <start_second_addr>:
    80d0:	00010000 	.word	0x00010000

000080d4 <secondary_table_addr>:
    80d4:	000080dc 	.word	0x000080dc

000080d8 <main_table>:
    80d8:	00010001 	.word	0x00010001

000080dc <secondary_table>:
    80dc:	00011c02 	.word	0x00011c02
    80e0:	00012c02 	.word	0x00012c02
    80e4:	00013c02 	.word	0x00013c02
    80e8:	00014c02 	.word	0x00014c02
    80ec:	00015c02 	.word	0x00015c02
    80f0:	00016c02 	.word	0x00016c02
    80f4:	00017c02 	.word	0x00017c02
    80f8:	00007c02 	.word	0x00007c02
    80fc:	00008c02 	.word	0x00008c02
    8100:	20215c02 	.word	0x20215c02
    8104:	20215c02 	.word	0x20215c02
    8108:	20215c02 	.word	0x20215c02
    810c:	20215c02 	.word	0x20215c02

00008110 <stack_Init>:
    8110:	e3a000db 	mov	r0, #219	@ 0xdb
    8114:	e129f000 	msr	CPSR_fc, r0
    8118:	e59fd03c 	ldr	sp, [pc, #60]	@ 815c <_undefined_stack>
    811c:	e3a000d7 	mov	r0, #215	@ 0xd7
    8120:	e129f000 	msr	CPSR_fc, r0
    8124:	e59fd034 	ldr	sp, [pc, #52]	@ 8160 <_abort_stack>
    8128:	e3a000d1 	mov	r0, #209	@ 0xd1
    812c:	e129f000 	msr	CPSR_fc, r0
    8130:	e59fd030 	ldr	sp, [pc, #48]	@ 8168 <_fiq_stack>
    8134:	e3a000d2 	mov	r0, #210	@ 0xd2
    8138:	e129f000 	msr	CPSR_fc, r0
    813c:	e59fd020 	ldr	sp, [pc, #32]	@ 8164 <_irq_stack>
    8140:	e3a000df 	mov	r0, #223	@ 0xdf
    8144:	e129f000 	msr	CPSR_fc, r0
    8148:	e59fd01c 	ldr	sp, [pc, #28]	@ 816c <_sys_stack>
    814c:	e3a000d3 	mov	r0, #211	@ 0xd3
    8150:	e129f000 	msr	CPSR_fc, r0
    8154:	e59fd014 	ldr	sp, [pc, #20]	@ 8170 <_init_stack>
    8158:	e12fff1e 	bx	lr

0000815c <_undefined_stack>:
    815c:	00001000 	.word	0x00001000

00008160 <_abort_stack>:
    8160:	00002000 	.word	0x00002000

00008164 <_irq_stack>:
    8164:	00003000 	.word	0x00003000

00008168 <_fiq_stack>:
    8168:	00004000 	.word	0x00004000

0000816c <_sys_stack>:
    816c:	00005000 	.word	0x00005000

00008170 <_init_stack>:
    8170:	00008000 	.word	0x00008000

00008174 <buffer>:
	...

00008194 <uart0_Init>:
    8194:	e92d4070 	push	{r4, r5, r6, lr}
    8198:	e1a04000 	mov	r4, r0
    819c:	e1a05001 	mov	r5, r1
    81a0:	e1a06002 	mov	r6, r2
    81a4:	e3a0000e 	mov	r0, #14
    81a8:	e3a01002 	mov	r1, #2
    81ac:	eb00004f 	bl	82f0 <gpio_ModeSet>
    81b0:	e3a0000f 	mov	r0, #15
    81b4:	e3a01002 	mov	r1, #2
    81b8:	eb00004c 	bl	82f0 <gpio_ModeSet>
    81bc:	e3a0000e 	mov	r0, #14
    81c0:	e3a01000 	mov	r1, #0
    81c4:	eb000060 	bl	834c <gpio_pud_mode_write>
    81c8:	e3a0000f 	mov	r0, #15
    81cc:	e3a01000 	mov	r1, #0
    81d0:	eb00005d 	bl	834c <gpio_pud_mode_write>
    81d4:	e59f0248 	ldr	r0, [pc, #584]	@ 8424 <math_u32_divide_error+0x8>
    81d8:	e3a01001 	mov	r1, #1
    81dc:	e5801004 	str	r1, [r0, #4]
    81e0:	e3a02000 	mov	r2, #0
    81e4:	e5802044 	str	r2, [r0, #68]	@ 0x44
    81e8:	e3a02000 	mov	r2, #0
    81ec:	e5802060 	str	r2, [r0, #96]	@ 0x60
    81f0:	e580504c 	str	r5, [r0, #76]	@ 0x4c
    81f4:	e3a02000 	mov	r2, #0
    81f8:	e5802050 	str	r2, [r0, #80]	@ 0x50
    81fc:	e3a02000 	mov	r2, #0
    8200:	e5802048 	str	r2, [r0, #72]	@ 0x48
    8204:	e3a03f51 	mov	r3, #324	@ 0x144
    8208:	e5803068 	str	r3, [r0, #104]	@ 0x68
    820c:	e3a02003 	mov	r2, #3
    8210:	e5802060 	str	r2, [r0, #96]	@ 0x60
    8214:	e8bd8070 	pop	{r4, r5, r6, pc}

00008218 <uart0_read>:
    8218:	e52de004 	push	{lr}		@ (str lr, [sp, #-4]!)
    821c:	e59f0200 	ldr	r0, [pc, #512]	@ 8424 <math_u32_divide_error+0x8>
    8220:	e5901054 	ldr	r1, [r0, #84]	@ 0x54
    8224:	e3110001 	tst	r1, #1
    8228:	0afffffc 	beq	8220 <uart0_read+0x8>
    822c:	e5900040 	ldr	r0, [r0, #64]	@ 0x40
    8230:	e49df004 	pop	{pc}		@ (ldr pc, [sp], #4)

00008234 <uart0_write>:
    8234:	e52de004 	push	{lr}		@ (str lr, [sp, #-4]!)
    8238:	e20020ff 	and	r2, r0, #255	@ 0xff
    823c:	e59f01e0 	ldr	r0, [pc, #480]	@ 8424 <math_u32_divide_error+0x8>
    8240:	e5901054 	ldr	r1, [r0, #84]	@ 0x54
    8244:	e3110020 	tst	r1, #32
    8248:	0afffffc 	beq	8240 <uart0_write+0xc>
    824c:	e5802040 	str	r2, [r0, #64]	@ 0x40
    8250:	e49df004 	pop	{pc}		@ (ldr pc, [sp], #4)

00008254 <uart0_write_bytes>:
    8254:	e92d4030 	push	{r4, r5, lr}
    8258:	e1a03000 	mov	r3, r0
    825c:	e1a04001 	mov	r4, r1
    8260:	e3a05000 	mov	r5, #0
    8264:	e1530005 	cmp	r3, r5
    8268:	0a000007 	beq	828c <uart0_write_bytes+0x38>
    826c:	e1550004 	cmp	r5, r4
    8270:	2a000005 	bcs	828c <uart0_write_bytes+0x38>
    8274:	e7d30005 	ldrb	r0, [r3, r5]
    8278:	e3500000 	cmp	r0, #0
    827c:	0a000002 	beq	828c <uart0_write_bytes+0x38>
    8280:	ebffffeb 	bl	8234 <uart0_write>
    8284:	e2855001 	add	r5, r5, #1
    8288:	eafffff7 	b	826c <uart0_write_bytes+0x18>
    828c:	e8bd8030 	pop	{r4, r5, pc}

00008290 <uart0_u32_write>:
    8290:	e3510010 	cmp	r1, #16
    8294:	812fff1e 	bxhi	lr
    8298:	e92d4070 	push	{r4, r5, r6, lr}
    829c:	e1a04000 	mov	r4, r0
    82a0:	e1a05001 	mov	r5, r1
    82a4:	e59f617c 	ldr	r6, [pc, #380]	@ 8428 <math_u32_divide_error+0xc>
    82a8:	e3a00000 	mov	r0, #0
    82ac:	e4c60001 	strb	r0, [r6], #1
    82b0:	e1a00004 	mov	r0, r4
    82b4:	e1a01005 	mov	r1, r5
    82b8:	eb000042 	bl	83c8 <math_u32_divide>
    82bc:	e1a04000 	mov	r4, r0
    82c0:	e1a00001 	mov	r0, r1
    82c4:	e3500009 	cmp	r0, #9
    82c8:	82800007 	addhi	r0, r0, #7
    82cc:	e2800030 	add	r0, r0, #48	@ 0x30
    82d0:	e4c60001 	strb	r0, [r6], #1
    82d4:	e3340000 	teq	r4, #0
    82d8:	1afffff4 	bne	82b0 <uart0_u32_write+0x20>
    82dc:	e5760001 	ldrb	r0, [r6, #-1]!
    82e0:	e3500000 	cmp	r0, #0
    82e4:	1bffffd2 	blne	8234 <uart0_write>
    82e8:	1afffffb 	bne	82dc <uart0_u32_write+0x4c>
    82ec:	e8bd8070 	pop	{r4, r5, r6, pc}

000082f0 <gpio_ModeSet>:
    82f0:	e3500035 	cmp	r0, #53	@ 0x35
    82f4:	93510007 	cmpls	r1, #7
    82f8:	8a000011 	bhi	8344 <gpio_ModeSet+0x54>
    82fc:	e92d4010 	push	{r4, lr}
    8300:	e1a02000 	mov	r2, r0
    8304:	e1a03001 	mov	r3, r1
    8308:	e59f011c 	ldr	r0, [pc, #284]	@ 842c <math_u32_divide_error+0x10>
    830c:	e352000a 	cmp	r2, #10
    8310:	4a000002 	bmi	8320 <gpio_ModeSet+0x30>
    8314:	e2800004 	add	r0, r0, #4
    8318:	e242200a 	sub	r2, r2, #10
    831c:	eafffffa 	b	830c <gpio_ModeSet+0x1c>
    8320:	e0822082 	add	r2, r2, r2, lsl #1
    8324:	e5901000 	ldr	r1, [r0]
    8328:	e3a04007 	mov	r4, #7
    832c:	e1e04214 	mvn	r4, r4, lsl r2
    8330:	e0011004 	and	r1, r1, r4
    8334:	e1811213 	orr	r1, r1, r3, lsl r2
    8338:	e5801000 	str	r1, [r0]
    833c:	e3a00000 	mov	r0, #0
    8340:	ea000000 	b	8348 <gpio_ModeSet+0x58>
    8344:	e3e00000 	mvn	r0, #0
    8348:	e8bd8010 	pop	{r4, pc}

0000834c <gpio_pud_mode_write>:
    834c:	e3500007 	cmp	r0, #7
    8350:	83e00000 	mvnhi	r0, #0
    8354:	812fff1e 	bxhi	lr
    8358:	e3510002 	cmp	r1, #2
    835c:	83e01001 	mvnhi	r1, #1
    8360:	812fff1e 	bxhi	lr
    8364:	e92d4070 	push	{r4, r5, r6, lr}
    8368:	e1a04001 	mov	r4, r1
    836c:	e1a00004 	mov	r0, r4
    8370:	e3a01020 	mov	r1, #32
    8374:	eb000013 	bl	83c8 <math_u32_divide>
    8378:	e1a05000 	mov	r5, r0
    837c:	e1a06001 	mov	r6, r1
    8380:	e59f00a4 	ldr	r0, [pc, #164]	@ 842c <math_u32_divide_error+0x10>
    8384:	e5804094 	str	r4, [r0, #148]	@ 0x94
    8388:	e1a03105 	lsl	r3, r5, #2
    838c:	e2832098 	add	r2, r3, #152	@ 0x98
    8390:	e3a03001 	mov	r3, #1
    8394:	e1a03613 	lsl	r3, r3, r6
    8398:	e7803002 	str	r3, [r0, r2]
    839c:	e3a00096 	mov	r0, #150	@ 0x96
    83a0:	eb000005 	bl	83bc <utils_delay>
    83a4:	e59f0080 	ldr	r0, [pc, #128]	@ 842c <math_u32_divide_error+0x10>
    83a8:	e3a03000 	mov	r3, #0
    83ac:	e5803094 	str	r3, [r0, #148]	@ 0x94
    83b0:	e7803002 	str	r3, [r0, r2]
    83b4:	e3a00000 	mov	r0, #0
    83b8:	e8bd8070 	pop	{r4, r5, r6, pc}

000083bc <utils_delay>:
    83bc:	e2500001 	subs	r0, r0, #1
    83c0:	1afffffd 	bne	83bc <utils_delay>
    83c4:	e12fff1e 	bx	lr

000083c8 <math_u32_divide>:
    83c8:	e3510000 	cmp	r1, #0
    83cc:	0a000012 	beq	841c <math_u32_divide_error>
    83d0:	e1a03000 	mov	r3, r0
    83d4:	e3a00000 	mov	r0, #0
    83d8:	e1530001 	cmp	r3, r1
    83dc:	31a01003 	movcc	r1, r3
    83e0:	312fff1e 	bxcc	lr
    83e4:	e92d4070 	push	{r4, r5, r6, lr}
    83e8:	e3a02001 	mov	r2, #1
    83ec:	e3a04000 	mov	r4, #0
    83f0:	e1a05411 	lsl	r5, r1, r4
    83f4:	e0436005 	sub	r6, r3, r5
    83f8:	e1560005 	cmp	r6, r5
    83fc:	22844001 	addcs	r4, r4, #1
    8400:	2afffffa 	bcs	83f0 <math_u32_divide+0x28>
    8404:	e1a03006 	mov	r3, r6
    8408:	e1800412 	orr	r0, r0, r2, lsl r4
    840c:	e1530001 	cmp	r3, r1
    8410:	2afffff5 	bcs	83ec <math_u32_divide+0x24>
    8414:	e1a01003 	mov	r1, r3
    8418:	e8bd8070 	pop	{r4, r5, r6, pc}

0000841c <math_u32_divide_error>:
    841c:	e3a00000 	mov	r0, #0
    8420:	e12fff1e 	bx	lr
    8424:	20215000 	.word	0x20215000
    8428:	00008174 	.word	0x00008174
    842c:	20200000 	.word	0x20200000

Disassembly of section .text:

00005000 <loop>:
    5000:	e3a00001 	mov	r0, #1
    5004:	eb000c83 	bl	8218 <uart0_read>
    5008:	e350000d 	cmp	r0, #13
    500c:	13a01001 	movne	r1, #1
    5010:	1b000c87 	blne	8234 <uart0_write>
    5014:	1afffff9 	bne	5000 <loop>
    5018:	e3a0000d 	mov	r0, #13
    501c:	e3a01001 	mov	r1, #1
    5020:	eb000c83 	bl	8234 <uart0_write>
    5024:	e3a0000a 	mov	r0, #10
    5028:	e3a01001 	mov	r1, #1
    502c:	eb000c80 	bl	8234 <uart0_write>
    5030:	eafffff2 	b	5000 <loop>

00005034 <system_CoreFreqGet>:
    5034:	e59f0184 	ldr	r0, [pc, #388]	@ 51c0 <error+0x14>
    5038:	e5900000 	ldr	r0, [r0]
    503c:	e12fff1e 	bx	lr

00005040 <system_CoreFreq>:
    5040:	0ee6b280 	.word	0x0ee6b280

00005044 <devices_AddressGet>:
    5044:	e59f1178 	ldr	r1, [pc, #376]	@ 51c4 <error+0x18>
    5048:	e7910100 	ldr	r0, [r1, r0, lsl #2]
    504c:	e12fff1e 	bx	lr

00005050 <auxiliary_Enable>:
    5050:	e52de004 	push	{lr}		@ (str lr, [sp, #-4]!)
    5054:	e2002007 	and	r2, r0, #7
    5058:	e3a00003 	mov	r0, #3
    505c:	ebfffff8 	bl	5044 <devices_AddressGet>
    5060:	e5901004 	ldr	r1, [r0, #4]
    5064:	e1811002 	orr	r1, r1, r2
    5068:	e5801004 	str	r1, [r0, #4]
    506c:	e49df004 	pop	{pc}		@ (ldr pc, [sp], #4)

00005070 <mailbox_write>:
    5070:	e310000f 	tst	r0, #15
    5074:	112fff1e 	bxne	lr
    5078:	e351000f 	cmp	r1, #15
    507c:	812fff1e 	bxhi	lr
    5080:	e52de004 	push	{lr}		@ (str lr, [sp, #-4]!)
    5084:	e2802101 	add	r2, r0, #1073741824	@ 0x40000000
    5088:	e1a03001 	mov	r3, r1
    508c:	e3a00001 	mov	r0, #1
    5090:	ebffffeb 	bl	5044 <devices_AddressGet>
    5094:	e5901018 	ldr	r1, [r0, #24]
    5098:	e3110102 	tst	r1, #-2147483648	@ 0x80000000
    509c:	1afffffc 	bne	5094 <mailbox_write+0x24>
    50a0:	e0822003 	add	r2, r2, r3
    50a4:	e5802020 	str	r2, [r0, #32]
    50a8:	e49df004 	pop	{pc}		@ (ldr pc, [sp], #4)

000050ac <mailbox_read>:
    50ac:	e350000f 	cmp	r0, #15
    50b0:	812fff1e 	bxhi	lr
    50b4:	e52de004 	push	{lr}		@ (str lr, [sp, #-4]!)
    50b8:	e1a02000 	mov	r2, r0
    50bc:	e3a00001 	mov	r0, #1
    50c0:	ebffffdf 	bl	5044 <devices_AddressGet>
    50c4:	e5901018 	ldr	r1, [r0, #24]
    50c8:	e3110101 	tst	r1, #1073741824	@ 0x40000000
    50cc:	1afffffc 	bne	50c4 <mailbox_read+0x18>
    50d0:	e5901000 	ldr	r1, [r0]
    50d4:	e201300f 	and	r3, r1, #15
    50d8:	e1330002 	teq	r3, r2
    50dc:	1afffff8 	bne	50c4 <mailbox_read+0x18>
    50e0:	e3c1000f 	bic	r0, r1, #15
    50e4:	e49df004 	pop	{pc}		@ (ldr pc, [sp], #4)

000050e8 <arm_timer_init>:
    50e8:	e52de004 	push	{lr}		@ (str lr, [sp, #-4]!)
    50ec:	e59f00d4 	ldr	r0, [pc, #212]	@ 51c8 <error+0x1c>
    50f0:	e3a01b03 	mov	r1, #3072	@ 0xc00
    50f4:	e5801000 	str	r1, [r0]
    50f8:	e3a0108a 	mov	r1, #138	@ 0x8a
    50fc:	e5801008 	str	r1, [r0, #8]
    5100:	e49df004 	pop	{pc}		@ (ldr pc, [sp], #4)

00005104 <arm_timer_value_read>:
    5104:	e52de004 	push	{lr}		@ (str lr, [sp, #-4]!)
    5108:	e59f00b8 	ldr	r0, [pc, #184]	@ 51c8 <error+0x1c>
    510c:	e5900004 	ldr	r0, [r0, #4]
    5110:	e49df004 	pop	{pc}		@ (ldr pc, [sp], #4)

00005114 <arm_timer_irq_clear>:
    5114:	e52de004 	push	{lr}		@ (str lr, [sp, #-4]!)
    5118:	e59f00a8 	ldr	r0, [pc, #168]	@ 51c8 <error+0x1c>
    511c:	e3a01001 	mov	r1, #1
    5120:	e580100c 	str	r1, [r0, #12]
    5124:	e49df004 	pop	{pc}		@ (ldr pc, [sp], #4)

00005128 <framebuffer_init>:
    5128:	e3500b02 	cmp	r0, #2048	@ 0x800
    512c:	93510b02 	cmpls	r1, #2048	@ 0x800
    5130:	93520020 	cmpls	r2, #32
    5134:	83a00000 	movhi	r0, #0
    5138:	81a0f00e 	movhi	pc, lr
    513c:	e52de004 	push	{lr}		@ (str lr, [sp, #-4]!)
    5140:	e59f3084 	ldr	r3, [pc, #132]	@ 51cc <error+0x20>
    5144:	e5830000 	str	r0, [r3]
    5148:	e5831004 	str	r1, [r3, #4]
    514c:	e5830008 	str	r0, [r3, #8]
    5150:	e583100c 	str	r1, [r3, #12]
    5154:	e5832014 	str	r2, [r3, #20]
    5158:	e2830101 	add	r0, r3, #1073741824	@ 0x40000000
    515c:	e3a01001 	mov	r1, #1
    5160:	ebffffc2 	bl	5070 <mailbox_write>
    5164:	e3a00001 	mov	r0, #1
    5168:	ebffffcf 	bl	50ac <mailbox_read>
    516c:	e1a00003 	mov	r0, r3
    5170:	e49df004 	pop	{pc}		@ (ldr pc, [sp], #4)

00005174 <frameBuffer_GetDimmensions>:
    5174:	e52de004 	push	{lr}		@ (str lr, [sp, #-4]!)
    5178:	e59f0050 	ldr	r0, [pc, #80]	@ 51d0 <error+0x24>
    517c:	e3a01008 	mov	r1, #8
    5180:	ebffffba 	bl	5070 <mailbox_write>
    5184:	e3a00008 	mov	r0, #8
    5188:	ebffffc7 	bl	50ac <mailbox_read>
    518c:	e590300c 	ldr	r3, [r0, #12]
    5190:	e3530008 	cmp	r3, #8
    5194:	e3e00000 	mvn	r0, #0
    5198:	1a000003 	bne	51ac <error>
    519c:	e59f202c 	ldr	r2, [pc, #44]	@ 51d0 <error+0x24>
    51a0:	e5920014 	ldr	r0, [r2, #20]
    51a4:	e5921018 	ldr	r1, [r2, #24]
    51a8:	e49df004 	pop	{pc}		@ (ldr pc, [sp], #4)

000051ac <error>:
    51ac:	e3700001 	cmn	r0, #1
    51b0:	059f001c 	ldreq	r0, [pc, #28]	@ 51d4 <error+0x28>
    51b4:	03a01036 	moveq	r1, #54	@ 0x36
    51b8:	0b000c25 	bleq	8254 <uart0_write_bytes>
    51bc:	e49df004 	pop	{pc}		@ (ldr pc, [sp], #4)
    51c0:	00005040 	.word	0x00005040
    51c4:	00006004 	.word	0x00006004
    51c8:	2000b400 	.word	0x2000b400
    51cc:	00006020 	.word	0x00006020
    51d0:	00006050 	.word	0x00006050
    51d4:	00006070 	.word	0x00006070
